; ModuleID = 'source-C-CXX/27/614.c'
source_filename = "source-C-CXX/27/614.c"
target datalayout = "e-m:e-p270:32:32-p271:32:32-p272:64:64-i64:64-f80:128-n8:16:32:64-S128"
target triple = "x86_64-pc-linux-gnu"

@.str = private unnamed_addr constant [3 x i8] c"%d\00", align 1

; Function Attrs: nounwind sspstrong uwtable
define dso_local i32 @main() local_unnamed_addr #0 {
  %1 = alloca [20000 x i8], align 16
  %2 = getelementptr inbounds [20000 x i8], [20000 x i8]* %1, i64 0, i64 0
  call void @llvm.lifetime.start.p0i8(i64 20000, i8* nonnull %2) #6
  %3 = call i32 (i8*, ...) bitcast (i32 (...)* @gets to i32 (i8*, ...)*)(i8* nonnull %2) #6
  %4 = call i64 @strlen(i8* noundef nonnull %2) #7
  %5 = trunc i64 %4 to i32
  %6 = icmp sgt i32 %5, 0
  br i1 %6, label %7, label %34

7:                                                ; preds = %0
  %8 = add i64 %4, 4294967295
  %9 = and i64 %8, 4294967295
  %10 = and i64 %4, 4294967295
  br label %11

11:                                               ; preds = %7, %31
  %12 = phi i64 [ 0, %7 ], [ %32, %31 ]
  %13 = phi i32 [ 0, %7 ], [ %27, %31 ]
  %14 = getelementptr inbounds [20000 x i8], [20000 x i8]* %1, i64 0, i64 %12
  %15 = load i8, i8* %14, align 1, !tbaa !5
  %16 = icmp eq i8 %15, 32
  br i1 %16, label %19, label %17

17:                                               ; preds = %11
  %18 = add nsw i32 %13, 1
  br label %26

19:                                               ; preds = %11
  %20 = icmp eq i32 %13, 0
  br i1 %20, label %26, label %21

21:                                               ; preds = %19
  %22 = call i32 (i8*, ...) @printf(i8* nonnull dereferenceable(1) getelementptr inbounds ([3 x i8], [3 x i8]* @.str, i64 0, i64 0), i32 %13)
  %23 = icmp eq i64 %12, %9
  br i1 %23, label %26, label %24

24:                                               ; preds = %21
  %25 = call i32 @putchar(i32 44)
  br label %26

26:                                               ; preds = %21, %24, %19, %17
  %27 = phi i32 [ %18, %17 ], [ 0, %19 ], [ 0, %24 ], [ 0, %21 ]
  %28 = icmp eq i64 %12, %9
  br i1 %28, label %29, label %31

29:                                               ; preds = %26
  %30 = call i32 (i8*, ...) @printf(i8* nonnull dereferenceable(1) getelementptr inbounds ([3 x i8], [3 x i8]* @.str, i64 0, i64 0), i32 %27)
  br label %31

31:                                               ; preds = %26, %29
  %32 = add nuw nsw i64 %12, 1
  %33 = icmp eq i64 %32, %10
  br i1 %33, label %34, label %11, !llvm.loop !8

34:                                               ; preds = %31, %0
  call void @llvm.lifetime.end.p0i8(i64 20000, i8* nonnull %2) #6
  ret i32 0
}

; Function Attrs: argmemonly mustprogress nofree nosync nounwind willreturn
declare void @llvm.lifetime.start.p0i8(i64 immarg, i8* nocapture) #1

declare i32 @gets(...) local_unnamed_addr #2

; Function Attrs: argmemonly mustprogress nofree nounwind readonly willreturn
declare i64 @strlen(i8* nocapture) local_unnamed_addr #3

; Function Attrs: nofree nounwind
declare noundef i32 @printf(i8* nocapture noundef readonly, ...) local_unnamed_addr #4

; Function Attrs: argmemonly mustprogress nofree nosync nounwind willreturn
declare void @llvm.lifetime.end.p0i8(i64 immarg, i8* nocapture) #1

; Function Attrs: nofree nounwind
declare noundef i32 @putchar(i32 noundef) local_unnamed_addr #5


!llvm.module.flags = !{!0, !1, !2, !3}
!llvm.ident = !{!4}

!0 = !{i32 1, !"wchar_size", i32 4}
!1 = !{i32 7, !"PIC Level", i32 2}
!2 = !{i32 7, !"PIE Level", i32 2}
!3 = !{i32 7, !"uwtable", i32 1}
!4 = !{!"clang version 13.0.0"}
!5 = !{!6, !6, i64 0}
!6 = !{!"omnipotent char", !7, i64 0}
!7 = !{!"Simple C/C++ TBAA"}
!8 = distinct !{!8, !9}
!9 = !{!"llvm.loop.mustprogress"}
